; Function Attrs: mustprogress uwtable
define dso_local void @_ZNK8DfgGraph7dumpDotERSoRKNSt7__cxx1112basic_stringIcSt11char_traitsIcESaIcEEE(ptr noundef nonnull align 8 dereferenceable(104) %0, ptr noundef nonnull align 8 dereferenceable(8) %1, ptr noundef nonnull align 8 dereferenceable(32) %2) #3 align 2 personality ptr @__gxx_personality_v0 {
  %4 = alloca %"class.std::function.10", align 8
  %5 = tail call noundef nonnull align 8 dereferenceable(8) ptr @_ZStlsISt11char_traitsIcEERSt13basic_ostreamIcT_ES5_PKc(ptr noundef nonnull align 8 dereferenceable(8) %1, ptr noundef nonnull @.str)
  %6 = tail call noundef nonnull align 8 dereferenceable(8) ptr @_ZStlsISt11char_traitsIcEERSt13basic_ostreamIcT_ES5_PKc(ptr noundef nonnull align 8 dereferenceable(8) %1, ptr noundef nonnull @.str.1)
  %7 = getelementptr inbounds i8, ptr %0, i64 72
  %8 = tail call noundef nonnull align 8 dereferenceable(8) ptr @_ZStlsIcSt11char_traitsIcESaIcEERSt13basic_ostreamIT_T0_ES7_RKNSt7__cxx1112basic_stringIS4_S5_T1_EE(ptr noundef nonnull align 8 dereferenceable(8) %6, ptr noundef nonnull align 8 dereferenceable(32) %7)
  %9 = tail call noundef zeroext i1 @_ZNKSt7__cxx1112basic_stringIcSt11char_traitsIcESaIcEE5emptyEv(ptr noundef nonnull align 8 dereferenceable(32) %2) #28
  br i1 %9, label %13, label %10

10:                                               ; preds = %3
  %11 = tail call noundef nonnull align 8 dereferenceable(8) ptr @_ZStlsISt11char_traitsIcEERSt13basic_ostreamIcT_ES5_PKc(ptr noundef nonnull align 8 dereferenceable(8) %1, ptr noundef nonnull @.str.2)
  %12 = tail call noundef nonnull align 8 dereferenceable(8) ptr @_ZStlsIcSt11char_traitsIcESaIcEERSt13basic_ostreamIT_T0_ES7_RKNSt7__cxx1112basic_stringIS4_S5_T1_EE(ptr noundef nonnull align 8 dereferenceable(8) %11, ptr noundef nonnull align 8 dereferenceable(32) %2)
  br label %13

13:                                               ; preds = %10, %3
  %14 = tail call noundef nonnull align 8 dereferenceable(8) ptr @_ZStlsISt11char_traitsIcEERSt13basic_ostreamIcT_ES5_PKc(ptr noundef nonnull align 8 dereferenceable(8) %1, ptr noundef nonnull @.str.3)
  %15 = tail call noundef nonnull align 8 dereferenceable(8) ptr @_ZStlsISt11char_traitsIcEERSt13basic_ostreamIcT_ES5_PKc(ptr noundef nonnull align 8 dereferenceable(8) %1, ptr noundef nonnull @.str.4)
  %16 = getelementptr inbounds i8, ptr %4, i64 16
  %17 = getelementptr inbounds i8, ptr %4, i64 24
  %18 = getelementptr inbounds i8, ptr %4, i64 8
  store i64 0, ptr %18, align 8
  %19 = ptrtoint ptr %1 to i64
  store i64 %19, ptr %4, align 8
  store ptr @"_ZNSt17_Function_handlerIFvRK9DfgVertexEZNK8DfgGraph7dumpDotERSoRKNSt7__cxx1112basic_stringIcSt11char_traitsIcESaIcEEEE3$_0E9_M_invokeERKSt9_Any_dataS2_", ptr %17, align 8
  store ptr @"_ZNSt17_Function_handlerIFvRK9DfgVertexEZNK8DfgGraph7dumpDotERSoRKNSt7__cxx1112basic_stringIcSt11char_traitsIcESaIcEEEE3$_0E10_M_managerERSt9_Any_dataRKSG_St18_Manager_operation", ptr %16, align 8
  invoke void @_ZNK8DfgGraph13forEachVertexESt8functionIFvRK9DfgVertexEE(ptr noundef nonnull align 8 dereferenceable(104) %0, ptr noundef nonnull %4)
          to label %20 unwind label %28

20:                                               ; preds = %13
  %21 = load ptr, ptr %16, align 8
  %.not.i.i = icmp eq ptr %21, null
  br i1 %.not.i.i, label %_ZNSt8functionIFvRK9DfgVertexEED2Ev.exit, label %22

22:                                               ; preds = %20
  %23 = invoke noundef zeroext i1 %21(ptr noundef nonnull align 8 dereferenceable(16) %4, ptr noundef nonnull align 8 dereferenceable(16) %4, i32 noundef 3)
          to label %_ZNSt8functionIFvRK9DfgVertexEED2Ev.exit unwind label %24

24:                                               ; preds = %22
  %25 = landingpad { ptr, i32 }
          catch ptr null
  %26 = extractvalue { ptr, i32 } %25, 0
  call void @__clang_call_terminate(ptr %26) #27
  unreachable

_ZNSt8functionIFvRK9DfgVertexEED2Ev.exit:         ; preds = %20, %22
  %27 = call noundef nonnull align 8 dereferenceable(8) ptr @_ZStlsISt11char_traitsIcEERSt13basic_ostreamIcT_ES5_PKc(ptr noundef nonnull align 8 dereferenceable(8) %1, ptr noundef nonnull @.str.5)
  ret void

28:                                               ; preds = %13
  %29 = landingpad { ptr, i32 }
          cleanup
  %30 = load ptr, ptr %16, align 8
  %.not.i.i11 = icmp eq ptr %30, null
  br i1 %.not.i.i11, label %_ZNSt8functionIFvRK9DfgVertexEED2Ev.exit12, label %31

31:                                               ; preds = %28
  %32 = invoke noundef zeroext i1 %30(ptr noundef nonnull align 8 dereferenceable(16) %4, ptr noundef nonnull align 8 dereferenceable(16) %4, i32 noundef 3)
          to label %_ZNSt8functionIFvRK9DfgVertexEED2Ev.exit12 unwind label %33

33:                                               ; preds = %31
  %34 = landingpad { ptr, i32 }
          catch ptr null
  %35 = extractvalue { ptr, i32 } %34, 0
  call void @__clang_call_terminate(ptr %35) #27
  unreachable

_ZNSt8functionIFvRK9DfgVertexEED2Ev.exit12:       ; preds = %28, %31
  resume { ptr, i32 } %29
}